target datalayout = "e-m:e-p270:32:32-p271:32:32-p272:64:64-i64:64-i128:128-f80:128-n8:16:32:64-S128"
target triple = "x86_64-unknown-linux-gnu"

%struct.BlockDriverInfo = type { i32, i32, i64, i8, i8 }

; Function Attrs: nounwind sspstrong uwtable
define dso_local void @bdrv_round_to_subclusters(ptr noundef %bs, i64 noundef %offset, i64 noundef %bytes, ptr noundef %align_offset, ptr noundef %align_bytes) #0 {
entry:
  %bs.addr = alloca ptr, align 8
  %offset.addr = alloca i64, align 8
  %bytes.addr = alloca i64, align 8
  %align_offset.addr = alloca ptr, align 8
  %align_bytes.addr = alloca ptr, align 8
  %bdi = alloca %struct.BlockDriverInfo, align 8
  %c = alloca i64, align 8
  store ptr %bs, ptr %bs.addr, align 8
  store i64 %offset, ptr %offset.addr, align 8
  store i64 %bytes, ptr %bytes.addr, align 8
  store ptr %align_offset, ptr %align_offset.addr, align 8
  store ptr %align_bytes, ptr %align_bytes.addr, align 8
  br label %do.body

do.body:                                          ; preds = %entry
  br label %do.end

do.end:                                           ; preds = %do.body
  %0 = load ptr, ptr %bs.addr, align 8
  %call = call i32 @bdrv_co_get_info(ptr noundef %0, ptr noundef %bdi)
  %cmp = icmp slt i32 %call, 0
  br i1 %cmp, label %if.then, label %lor.lhs.false

lor.lhs.false:                                    ; preds = %do.end
  %subcluster_size = getelementptr inbounds %struct.BlockDriverInfo, ptr %bdi, i32 0, i32 1
  %1 = load i32, ptr %subcluster_size, align 4
  %cmp1 = icmp eq i32 %1, 0
  br i1 %cmp1, label %if.then, label %if.else

if.then:                                          ; preds = %lor.lhs.false, %do.end
  %2 = load i64, ptr %offset.addr, align 8
  %3 = load ptr, ptr %align_offset.addr, align 8
  store i64 %2, ptr %3, align 8
  %4 = load i64, ptr %bytes.addr, align 8
  %5 = load ptr, ptr %align_bytes.addr, align 8
  store i64 %4, ptr %5, align 8
  br label %if.end

if.else:                                          ; preds = %lor.lhs.false
  %subcluster_size2 = getelementptr inbounds %struct.BlockDriverInfo, ptr %bdi, i32 0, i32 1
  %6 = load i32, ptr %subcluster_size2, align 4
  %conv = sext i32 %6 to i64
  store i64 %conv, ptr %c, align 8
  %7 = load i64, ptr %offset.addr, align 8
  %8 = load i64, ptr %c, align 8
  %div = sdiv i64 %7, %8
  %9 = load i64, ptr %c, align 8
  %mul = mul i64 %div, %9
  %10 = load ptr, ptr %align_offset.addr, align 8
  store i64 %mul, ptr %10, align 8
  %11 = load i64, ptr %offset.addr, align 8
  %12 = load ptr, ptr %align_offset.addr, align 8
  %13 = load i64, ptr %12, align 8
  %sub = sub i64 %11, %13
  %14 = load i64, ptr %bytes.addr, align 8
  %add = add i64 %sub, %14
  %15 = load i64, ptr %c, align 8
  %add3 = add i64 %add, %15
  %sub4 = sub i64 %add3, 1
  %16 = load i64, ptr %c, align 8
  %div5 = sdiv i64 %sub4, %16
  %17 = load i64, ptr %c, align 8
  %mul6 = mul i64 %div5, %17
  %18 = load ptr, ptr %align_bytes.addr, align 8
  store i64 %mul6, ptr %18, align 8
  br label %if.end

if.end:                                           ; preds = %if.else, %if.then
  ret void
}