; Function Attrs: nounwind sspstrong uwtable
define dso_local void @bdrv_round_to_subclusters(ptr noundef %bs, i64 noundef %offset, i64 noundef %bytes, ptr noundef writeonly captures(none) initializes((0, 8)) %align_offset, ptr noundef writeonly captures(none) initializes((0, 8)) %align_bytes) #0 {
entry:
  %bdi = alloca %struct.BlockDriverInfo, align 8
  %call = call i32 @bdrv_co_get_info(ptr noundef %bs, ptr noundef nonnull %bdi) #15
  %cmp = icmp slt i32 %call, 0
  %subcluster_size = getelementptr inbounds nuw i8, ptr %bdi, i64 4
  %0 = load i32, ptr %subcluster_size, align 4
  %cmp1 = icmp eq i32 %0, 0
  %or.cond = select i1 %cmp, i1 true, i1 %cmp1
  br i1 %or.cond, label %if.end, label %if.else

if.else:                                          ; preds = %entry
  %conv = sext i32 %0 to i64
  %1 = srem i64 %offset, %conv
  %mul = sub nsw i64 %offset, %1
  %add = add i64 %bytes, %conv
  %add3 = add i64 %add, %1
  %add3.fr = freeze i64 %add3
  %sub4 = add i64 %add3.fr, -1
  %2 = srem i64 %sub4, %conv
  %mul6 = sub nsw i64 %sub4, %2
  br label %if.end

if.end:                                           ; preds = %entry, %if.else
  %mul.sink = phi i64 [ %mul, %if.else ], [ %offset, %entry ]
  %storemerge = phi i64 [ %mul6, %if.else ], [ %bytes, %entry ]
  store i64 %mul.sink, ptr %align_offset, align 8
  store i64 %storemerge, ptr %align_bytes, align 8
  ret void
}